
Allocating common symbols
Common symbol       size              file

pid_pool            0x28              /home/yhy/workspace/cccc/bochs/build/obj/thread.o
argv                0x40              /home/yhy/workspace/cccc/bochs/build/obj/shell.o
kbd_buf             0x6c              /home/yhy/workspace/cccc/bochs/build/obj/keyboard.o
root_dir            0x208             /home/yhy/workspace/cccc/bochs/build/obj/dir.o
thread_ready_list   0x10              /home/yhy/workspace/cccc/bochs/build/obj/thread.o
thread_all_list     0x10              /home/yhy/workspace/cccc/bochs/build/obj/thread.o
user_pool           0x2c              /home/yhy/workspace/cccc/bochs/build/obj/memory.o
channel_cnt         0x1               /home/yhy/workspace/cccc/bochs/build/obj/ide.o
cur_part            0x4               /home/yhy/workspace/cccc/bochs/build/obj/fs.o
k_block_descs       0xa8              /home/yhy/workspace/cccc/bochs/build/obj/memory.o
idle_thread         0x4               /home/yhy/workspace/cccc/bochs/build/obj/thread.o
intr_name           0x204             /home/yhy/workspace/cccc/bochs/build/obj/interrupt.o
main_thread         0x4               /home/yhy/workspace/cccc/bochs/build/obj/thread.o
channels            0xcc0             /home/yhy/workspace/cccc/bochs/build/obj/ide.o
ticks               0x4               /home/yhy/workspace/cccc/bochs/build/obj/timer.o
kernel_vaddr        0xc               /home/yhy/workspace/cccc/bochs/build/obj/memory.o
syscall_table       0x80              /home/yhy/workspace/cccc/bochs/build/obj/syscall-init.o
idt_table           0x204             /home/yhy/workspace/cccc/bochs/build/obj/interrupt.o
file_table          0x180             /home/yhy/workspace/cccc/bochs/build/obj/file.o
partition_list      0x10              /home/yhy/workspace/cccc/bochs/build/obj/ide.o
kernel_pool         0x2c              /home/yhy/workspace/cccc/bochs/build/obj/memory.o
pid_lock            0x1c              /home/yhy/workspace/cccc/bochs/build/obj/thread.o

Discarded input sections

 .note.GNU-stack
                0x0000000000000000        0x0 /home/yhy/workspace/cccc/bochs/build/obj/main.o
 .note.GNU-stack
                0x0000000000000000        0x0 /home/yhy/workspace/cccc/bochs/build/obj/init.o
 .note.GNU-stack
                0x0000000000000000        0x0 /home/yhy/workspace/cccc/bochs/build/obj/interrupt.o
 .note.GNU-stack
                0x0000000000000000        0x0 /home/yhy/workspace/cccc/bochs/build/obj/timer.o
 .note.GNU-stack
                0x0000000000000000        0x0 /home/yhy/workspace/cccc/bochs/build/obj/debug.o
 .note.GNU-stack
                0x0000000000000000        0x0 /home/yhy/workspace/cccc/bochs/build/obj/memory.o
 .note.GNU-stack
                0x0000000000000000        0x0 /home/yhy/workspace/cccc/bochs/build/obj/bitmap.o
 .note.GNU-stack
                0x0000000000000000        0x0 /home/yhy/workspace/cccc/bochs/build/obj/string.o
 .note.GNU-stack
                0x0000000000000000        0x0 /home/yhy/workspace/cccc/bochs/build/obj/thread.o
 .note.GNU-stack
                0x0000000000000000        0x0 /home/yhy/workspace/cccc/bochs/build/obj/list.o
 .note.GNU-stack
                0x0000000000000000        0x0 /home/yhy/workspace/cccc/bochs/build/obj/sync.o
 .note.GNU-stack
                0x0000000000000000        0x0 /home/yhy/workspace/cccc/bochs/build/obj/console.o
 .note.GNU-stack
                0x0000000000000000        0x0 /home/yhy/workspace/cccc/bochs/build/obj/keyboard.o
 .note.GNU-stack
                0x0000000000000000        0x0 /home/yhy/workspace/cccc/bochs/build/obj/ioqueue.o
 .note.GNU-stack
                0x0000000000000000        0x0 /home/yhy/workspace/cccc/bochs/build/obj/tss.o
 .note.GNU-stack
                0x0000000000000000        0x0 /home/yhy/workspace/cccc/bochs/build/obj/process.o
 .note.GNU-stack
                0x0000000000000000        0x0 /home/yhy/workspace/cccc/bochs/build/obj/syscall.o
 .note.GNU-stack
                0x0000000000000000        0x0 /home/yhy/workspace/cccc/bochs/build/obj/syscall-init.o
 .note.GNU-stack
                0x0000000000000000        0x0 /home/yhy/workspace/cccc/bochs/build/obj/stdio.o
 .note.GNU-stack
                0x0000000000000000        0x0 /home/yhy/workspace/cccc/bochs/build/obj/stdio-kernel.o
 .note.GNU-stack
                0x0000000000000000        0x0 /home/yhy/workspace/cccc/bochs/build/obj/ide.o
 .note.GNU-stack
                0x0000000000000000        0x0 /home/yhy/workspace/cccc/bochs/build/obj/fs.o
 .note.GNU-stack
                0x0000000000000000        0x0 /home/yhy/workspace/cccc/bochs/build/obj/file.o
 .note.GNU-stack
                0x0000000000000000        0x0 /home/yhy/workspace/cccc/bochs/build/obj/inode.o
 .note.GNU-stack
                0x0000000000000000        0x0 /home/yhy/workspace/cccc/bochs/build/obj/dir.o
 .note.GNU-stack
                0x0000000000000000        0x0 /home/yhy/workspace/cccc/bochs/build/obj/fork.o
 .note.GNU-stack
                0x0000000000000000        0x0 /home/yhy/workspace/cccc/bochs/build/obj/assert.o
 .note.GNU-stack
                0x0000000000000000        0x0 /home/yhy/workspace/cccc/bochs/build/obj/shell.o
 .note.GNU-stack
                0x0000000000000000        0x0 /home/yhy/workspace/cccc/bochs/build/obj/buildin_cmd.o
 .note.GNU-stack
                0x0000000000000000        0x0 /home/yhy/workspace/cccc/bochs/build/obj/exec.o
 .note.GNU-stack
                0x0000000000000000        0x0 /home/yhy/workspace/cccc/bochs/build/obj/wait_exit.o

Memory Configuration

Name             Origin             Length             Attributes
*default*        0x0000000000000000 0xffffffffffffffff

Linker script and memory map

Address of section .text set to 0xc0001500
LOAD /home/yhy/workspace/cccc/bochs/build/obj/main.o
LOAD /home/yhy/workspace/cccc/bochs/build/obj/init.o
LOAD /home/yhy/workspace/cccc/bochs/build/obj/interrupt.o
LOAD /home/yhy/workspace/cccc/bochs/build/obj/timer.o
LOAD /home/yhy/workspace/cccc/bochs/build/obj/kernel.o
LOAD /home/yhy/workspace/cccc/bochs/build/obj/print.o
LOAD /home/yhy/workspace/cccc/bochs/build/obj/debug.o
LOAD /home/yhy/workspace/cccc/bochs/build/obj/memory.o
LOAD /home/yhy/workspace/cccc/bochs/build/obj/bitmap.o
LOAD /home/yhy/workspace/cccc/bochs/build/obj/string.o
LOAD /home/yhy/workspace/cccc/bochs/build/obj/thread.o
LOAD /home/yhy/workspace/cccc/bochs/build/obj/switch.o
LOAD /home/yhy/workspace/cccc/bochs/build/obj/list.o
LOAD /home/yhy/workspace/cccc/bochs/build/obj/sync.o
LOAD /home/yhy/workspace/cccc/bochs/build/obj/console.o
LOAD /home/yhy/workspace/cccc/bochs/build/obj/keyboard.o
LOAD /home/yhy/workspace/cccc/bochs/build/obj/ioqueue.o
LOAD /home/yhy/workspace/cccc/bochs/build/obj/tss.o
LOAD /home/yhy/workspace/cccc/bochs/build/obj/process.o
LOAD /home/yhy/workspace/cccc/bochs/build/obj/syscall.o
LOAD /home/yhy/workspace/cccc/bochs/build/obj/syscall-init.o
LOAD /home/yhy/workspace/cccc/bochs/build/obj/stdio.o
LOAD /home/yhy/workspace/cccc/bochs/build/obj/stdio-kernel.o
LOAD /home/yhy/workspace/cccc/bochs/build/obj/ide.o
LOAD /home/yhy/workspace/cccc/bochs/build/obj/fs.o
LOAD /home/yhy/workspace/cccc/bochs/build/obj/file.o
LOAD /home/yhy/workspace/cccc/bochs/build/obj/inode.o
LOAD /home/yhy/workspace/cccc/bochs/build/obj/dir.o
LOAD /home/yhy/workspace/cccc/bochs/build/obj/fork.o
LOAD /home/yhy/workspace/cccc/bochs/build/obj/assert.o
LOAD /home/yhy/workspace/cccc/bochs/build/obj/shell.o
LOAD /home/yhy/workspace/cccc/bochs/build/obj/buildin_cmd.o
LOAD /home/yhy/workspace/cccc/bochs/build/obj/exec.o
LOAD /home/yhy/workspace/cccc/bochs/build/obj/wait_exit.o
                [!provide]                        PROVIDE (__executable_start = SEGMENT_START ("text-segment", 0x8048000))
                0x00000000080480d4                . = (SEGMENT_START ("text-segment", 0x8048000) + SIZEOF_HEADERS)

.interp
 *(.interp)

.note.gnu.build-id
 *(.note.gnu.build-id)

.hash
 *(.hash)

.gnu.hash
 *(.gnu.hash)

.dynsym
 *(.dynsym)

.dynstr
 *(.dynstr)

.gnu.version
 *(.gnu.version)

.gnu.version_d
 *(.gnu.version_d)

.gnu.version_r
 *(.gnu.version_r)

.rel.dyn        0x00000000080480d4        0x0
 *(.rel.init)
 *(.rel.text .rel.text.* .rel.gnu.linkonce.t.*)
 .rel.text      0x00000000080480d4        0x0 /home/yhy/workspace/cccc/bochs/build/obj/main.o
 *(.rel.fini)
 *(.rel.rodata .rel.rodata.* .rel.gnu.linkonce.r.*)
 *(.rel.data.rel.ro .rel.data.rel.ro.* .rel.gnu.linkonce.d.rel.ro.*)
 *(.rel.data .rel.data.* .rel.gnu.linkonce.d.*)
 *(.rel.tdata .rel.tdata.* .rel.gnu.linkonce.td.*)
 *(.rel.tbss .rel.tbss.* .rel.gnu.linkonce.tb.*)
 *(.rel.ctors)
 *(.rel.dtors)
 *(.rel.got)
 .rel.got       0x00000000080480d4        0x0 /home/yhy/workspace/cccc/bochs/build/obj/main.o
 *(.rel.bss .rel.bss.* .rel.gnu.linkonce.b.*)
 *(.rel.ifunc)

.rel.plt        0x00000000080480d4        0x0
 *(.rel.plt)
                [!provide]                        PROVIDE (__rel_iplt_start = .)
 *(.rel.iplt)
 .rel.iplt      0x00000000080480d4        0x0 /home/yhy/workspace/cccc/bochs/build/obj/main.o
                [!provide]                        PROVIDE (__rel_iplt_end = .)
                0x0000000008049000                . = ALIGN (CONSTANT (MAXPAGESIZE))

.init
 *(SORT_NONE(.init))

.plt            0x0000000008049000        0x0
 *(.plt)
 *(.iplt)
 .iplt          0x0000000008049000        0x0 /home/yhy/workspace/cccc/bochs/build/obj/main.o

.plt.got
 *(.plt.got)

.plt.sec
 *(.plt.sec)

.text           0x00000000c0001500     0xbdf2
 *(.text.unlikely .text.*_unlikely .text.unlikely.*)
 *(.text.exit .text.exit.*)
 *(.text.startup .text.startup.*)
 *(.text.hot .text.hot.*)
 *(SORT_BY_NAME(.text.sorted.*))
 *(.text .stub .text.* .gnu.linkonce.t.*)
 .text          0x00000000c0001500      0x12d /home/yhy/workspace/cccc/bochs/build/obj/main.o
                0x00000000c0001500                main
                0x00000000c00015cf                init
 .text          0x00000000c000162d       0x4b /home/yhy/workspace/cccc/bochs/build/obj/init.o
                0x00000000c000162d                init_all
 .text          0x00000000c0001678      0x47e /home/yhy/workspace/cccc/bochs/build/obj/interrupt.o
                0x00000000c00019e9                intr_enable
                0x00000000c0001a12                intr_disable
                0x00000000c0001a3b                intr_set_status
                0x00000000c0001a59                intr_get_status
                0x00000000c0001a7c                idt_init
                0x00000000c0001ada                register_handler
 .text          0x00000000c0001af6      0x212 /home/yhy/workspace/cccc/bochs/build/obj/timer.o
                0x00000000c0001c50                mtime_sleep
                0x00000000c0001ca8                timer_init
 *fill*         0x00000000c0001d08        0x8 
 .text          0x00000000c0001d10      0x55b /home/yhy/workspace/cccc/bochs/build/obj/kernel.o
                0x00000000c0001d10                intr_exit
                0x00000000c0002247                syscall_handler
 *fill*         0x00000000c000226b        0x5 
 .text          0x00000000c0002270      0x1b1 /home/yhy/workspace/cccc/bochs/build/obj/print.o
                0x00000000c0002270                put_str
                0x00000000c000228e                put_char
                0x00000000c000235b                cls_screen
                0x00000000c000239a                put_int
                0x00000000c00023fd                set_cursor
 .text          0x00000000c0002421       0xa5 /home/yhy/workspace/cccc/bochs/build/obj/debug.o
                0x00000000c0002421                panic_spin
 .text          0x00000000c00024c6     0x1201 /home/yhy/workspace/cccc/bochs/build/obj/memory.o
                0x00000000c00025f5                pte_ptr
                0x00000000c0002626                pde_ptr
                0x00000000c00027d8                malloc_page
                0x00000000c00028a2                get_kernel_pages
                0x00000000c00028fe                get_user_pages
                0x00000000c0002954                get_a_page_without_opvaddrbitmap
                0x00000000c00029cf                get_a_page
                0x00000000c0002b51                addr_v2p
                0x00000000c0002ba7                sys_malloc
                0x00000000c0002eb7                pfree
                0x00000000c0003004                mfree_page
                0x00000000c00031d9                sys_free
                0x00000000c0003586                block_desc_init
                0x00000000c0003603                free_a_phy_page
                0x00000000c000366e                mem_init
 .text          0x00000000c00036c7      0x270 /home/yhy/workspace/cccc/bochs/build/obj/bitmap.o
                0x00000000c00036c7                bitmap_init
                0x00000000c00036ee                bitmap_scan_test
                0x00000000c0003730                bitmap_scan
                0x00000000c000387e                bitmap_set
 .text          0x00000000c0003937      0x283 /home/yhy/workspace/cccc/bochs/build/obj/string.o
                0x00000000c0003937                memset
                0x00000000c0003969                memcpy
                0x00000000c00039a1                memcmp
                0x00000000c0003a01                strcpy
                0x00000000c0003a34                strlen
                0x00000000c0003a64                strcmp
                0x00000000c0003ab5                strchr
                0x00000000c0003aee                strrchr
                0x00000000c0003b2d                strcat
                0x00000000c0003b77                strchrs
 .text          0x00000000c0003bba      0xcd8 /home/yhy/workspace/cccc/bochs/build/obj/thread.o
                0x00000000c0003c2f                running_thread
                0x00000000c0003c5a                thread_create
                0x00000000c0003d0e                release_pid
                0x00000000c0003d62                fork_pid
                0x00000000c0003d6f                thread_exit
                0x00000000c0003e72                pid2thread
                0x00000000c0003eb1                init_thread
                0x00000000c0003fa6                thread_start
                0x00000000c0004121                schedule
                0x00000000c0004274                thread_block
                0x00000000c00042db                thread_unblock
                0x00000000c00043e6                thread_yield
                0x00000000c00047c6                sys_ps
                0x00000000c0004813                thread_init
 *fill*         0x00000000c0004892        0xe 
 .text          0x00000000c00048a0       0x15 /home/yhy/workspace/cccc/bochs/build/obj/switch.o
                0x00000000c00048a0                switch_to
 .text          0x00000000c00048b5      0x1e4 /home/yhy/workspace/cccc/bochs/build/obj/list.o
                0x00000000c00048b5                list_init
                0x00000000c00048e2                list_insert_before
                0x00000000c0004923                list_push
                0x00000000c0004940                list_append
                0x00000000c000495d                list_remove
                0x00000000c0004993                list_pop
                0x00000000c00049b2                elem_find
                0x00000000c00049ed                list_traversal
                0x00000000c0004a4b                list_len
                0x00000000c0004a80                list_empty
 .text          0x00000000c0004a99      0x347 /home/yhy/workspace/cccc/bochs/build/obj/sync.o
                0x00000000c0004a99                sema_init
                0x00000000c0004abe                lock_init
                0x00000000c0004aef                sema_down
                0x00000000c0004c03                sema_up
                0x00000000c0004cb9                lock_acquire
                0x00000000c0004d35                lock_release
 .text          0x00000000c0004de0       0x9a /home/yhy/workspace/cccc/bochs/build/obj/console.o
                0x00000000c0004de0                console_init
                0x00000000c0004df4                console_acquire
                0x00000000c0004e08                console_release
                0x00000000c0004e1c                console_put_str
                0x00000000c0004e39                console_put_char
                0x00000000c0004e5d                console_put_int
 .text          0x00000000c0004e7a      0x2fb /home/yhy/workspace/cccc/bochs/build/obj/keyboard.o
                0x00000000c0005135                keyboard_init
 .text          0x00000000c0005175      0x2f1 /home/yhy/workspace/cccc/bochs/build/obj/ioqueue.o
                0x00000000c0005175                ioqueue_init
                0x00000000c00051d2                ioq_full
                0x00000000c0005223                ioq_empty
                0x00000000c0005308                ioq_getchar
                0x00000000c00053b6                ioq_putchar
 .text          0x00000000c0005466      0x1a9 /home/yhy/workspace/cccc/bochs/build/obj/tss.o
                0x00000000c0005466                update_tss_esp
                0x00000000c00054e1                tss_init
 .text          0x00000000c000560f      0x372 /home/yhy/workspace/cccc/bochs/build/obj/process.o
                0x00000000c000560f                start_process
                0x00000000c0005715                page_dir_activate
                0x00000000c0005745                process_activate
                0x00000000c0005797                create_page_dir
                0x00000000c0005808                create_user_vaddr_bitmap
                0x00000000c0005857                process_execute
 .text          0x00000000c0005981      0x2bf /home/yhy/workspace/cccc/bochs/build/obj/syscall.o
                0x00000000c0005981                getpid
                0x00000000c0005996                write
                0x00000000c00059b9                malloc
                0x00000000c00059d8                free
                0x00000000c00059f4                fork
                0x00000000c0005a09                read
                0x00000000c0005a2c                putchar
                0x00000000c0005a4f                clear
                0x00000000c0005a61                getcwd
                0x00000000c0005a83                open
                0x00000000c0005aac                close
                0x00000000c0005acb                lseek
                0x00000000c0005af5                unlink
                0x00000000c0005b14                mkdir
                0x00000000c0005b33                opendir
                0x00000000c0005b52                closedir
                0x00000000c0005b71                rmdir
                0x00000000c0005b90                readdir
                0x00000000c0005baf                rewinddir
                0x00000000c0005bcb                stat
                0x00000000c0005bed                chdir
                0x00000000c0005c0c                ps
                0x00000000c0005c1e                execv
 .text          0x00000000c0005c40      0x118 /home/yhy/workspace/cccc/bochs/build/obj/syscall-init.o
                0x00000000c0005c40                sys_getpid
                0x00000000c0005c52                syscall_init
 .text          0x00000000c0005d58      0x2ba /home/yhy/workspace/cccc/bochs/build/obj/stdio.o
                0x00000000c0005dde                vsprintf
                0x00000000c0005f62                sprintf
                0x00000000c0005f96                printf
 .text          0x00000000c0006012       0x62 /home/yhy/workspace/cccc/bochs/build/obj/stdio-kernel.o
                0x00000000c0006012                printk
 .text          0x00000000c0006074      0xe01 /home/yhy/workspace/cccc/bochs/build/obj/ide.o
                0x00000000c000638e                ide_read
                0x00000000c0006520                ide_write
                0x00000000c0006bb6                intr_hd_handler
                0x00000000c0006c77                ide_init
 .text          0x00000000c0006e75     0x217f /home/yhy/workspace/cccc/bochs/build/obj/fs.o
                0x00000000c0007578                path_parse
                0x00000000c00075d5                path_depth_cnt
                0x00000000c00078fd                sys_open
                0x00000000c0007bb5                sys_read
                0x00000000c0007c98                sys_putchar
                0x00000000c0007cb5                sys_write
                0x00000000c0007d9f                sys_lseek
                0x00000000c0007e87                sys_close
                0x00000000c0007edc                sys_unlink
                0x00000000c00080fd                sys_mkdir
                0x00000000c000852a                sys_opendir
                0x00000000c0008642                sys_closedir
                0x00000000c000866c                sys_readdir
                0x00000000c00086a9                sys_rewinddir
                0x00000000c00086b8                sys_rmdir
                0x00000000c0008a62                sys_getcwd
                0x00000000c0008c4f                sys_chdir
                0x00000000c0008cdd                sys_stat
                0x00000000c0008e04                filesys_init
 .text          0x00000000c0008ff4     0x11bd /home/yhy/workspace/cccc/bochs/build/obj/file.o
                0x00000000c0008ff4                get_free_slot_in_global
                0x00000000c0009044                pcb_fd_install
                0x00000000c00090a7                inode_bitmap_alloc
                0x00000000c00090f5                block_bitmap_alloc
                0x00000000c000914f                bitmap_sync
                0x00000000c00091da                file_create
                0x00000000c00094a9                file_open
                0x00000000c00095b2                file_close
                0x00000000c00095f1                file_write
                0x00000000c0009dd8                file_read
 .text          0x00000000c000a1b1      0x80f /home/yhy/workspace/cccc/bochs/build/obj/inode.o
                0x00000000c000a255                inode_sync
                0x00000000c000a3c6                inode_open
                0x00000000c000a51f                inode_close
                0x00000000c000a590                inode_delete
                0x00000000c000a6f2                inode_release
                0x00000000c000a971                inode_init
 .text          0x00000000c000a9c0      0xf13 /home/yhy/workspace/cccc/bochs/build/obj/dir.o
                0x00000000c000a9c0                open_root_dir
                0x00000000c000a9ef                dir_open
                0x00000000c000aa2a                search_dir_entry
                0x00000000c000abfa                dir_close
                0x00000000c000ac26                create_dir_entry
                0x00000000c000ac9c                sync_dir_entry
                0x00000000c000b10c                delete_dir_entry
                0x00000000c000b5d3                dir_read
                0x00000000c000b7df                dir_is_empty
                0x00000000c000b80a                dir_remove
 .text          0x00000000c000b8d3      0x548 /home/yhy/workspace/cccc/bochs/build/obj/fork.o
                0x00000000c000bce5                sys_fork
 .text          0x00000000c000be1b       0x30 /home/yhy/workspace/cccc/bochs/build/obj/assert.o
                0x00000000c000be1b                user_spin
 .text          0x00000000c000be4b      0x534 /home/yhy/workspace/cccc/bochs/build/obj/shell.o
                0x00000000c000be4b                print_prompt
                0x00000000c000c036                my_shell
 .text          0x00000000c000c37f      0x888 /home/yhy/workspace/cccc/bochs/build/obj/buildin_cmd.o
                0x00000000c000c503                make_clear_abs_path
                0x00000000c000c5c6                buildin_pwd
                0x00000000c000c61c                buildin_cd
                0x00000000c000c69c                buildin_ls
                0x00000000c000ca30                buildin_ps
                0x00000000c000ca51                buildin_clear
                0x00000000c000ca72                buildin_mkdir
                0x00000000c000caf9                buildin_rmdir
                0x00000000c000cb80                buildin_rm
 .text          0x00000000c000cc07      0x384 /home/yhy/workspace/cccc/bochs/build/obj/exec.o
                0x00000000c000cee3                sys_execv
 .text          0x00000000c000cf8b      0x367 /home/yhy/workspace/cccc/bochs/build/obj/wait_exit.o
                0x00000000c000d184                sys_wait
                0x00000000c000d23d                sys_exit
 *(.gnu.warning)

.fini
 *(SORT_NONE(.fini))
                [!provide]                        PROVIDE (__etext = .)
                [!provide]                        PROVIDE (_etext = .)
                [!provide]                        PROVIDE (etext = .)
                0x00000000c000e000                . = ALIGN (CONSTANT (MAXPAGESIZE))
                0x00000000c000e000                . = SEGMENT_START ("rodata-segment", (ALIGN (CONSTANT (MAXPAGESIZE)) + (. & (CONSTANT (MAXPAGESIZE) - 0x1))))

.rodata         0x00000000c000e000     0x2979
 *(.rodata .rodata.* .gnu.linkonce.r.*)
 .rodata        0x00000000c000e000       0xbe /home/yhy/workspace/cccc/bochs/build/obj/main.o
 .rodata        0x00000000c000e0be        0xa /home/yhy/workspace/cccc/bochs/build/obj/init.o
 .rodata        0x00000000c000e0c8      0x2d1 /home/yhy/workspace/cccc/bochs/build/obj/interrupt.o
 *fill*         0x00000000c000e399        0x3 
 .rodata        0x00000000c000e39c       0xac /home/yhy/workspace/cccc/bochs/build/obj/timer.o
 .rodata        0x00000000c000e448       0x3f /home/yhy/workspace/cccc/bochs/build/obj/debug.o
 *fill*         0x00000000c000e487        0x1 
 .rodata        0x00000000c000e488      0x3d6 /home/yhy/workspace/cccc/bochs/build/obj/memory.o
 *fill*         0x00000000c000e85e        0x2 
 .rodata        0x00000000c000e860       0x8b /home/yhy/workspace/cccc/bochs/build/obj/bitmap.o
 *fill*         0x00000000c000e8eb        0x1 
 .rodata        0x00000000c000e8ec      0x3f2 /home/yhy/workspace/cccc/bochs/build/obj/thread.o
 *fill*         0x00000000c000ecde        0x2 
 .rodata        0x00000000c000ece0      0x153 /home/yhy/workspace/cccc/bochs/build/obj/sync.o
 .rodata        0x00000000c000ee33       0x36 /home/yhy/workspace/cccc/bochs/build/obj/keyboard.o
 *fill*         0x00000000c000ee69        0x3 
 .rodata        0x00000000c000ee6c       0xc1 /home/yhy/workspace/cccc/bochs/build/obj/ioqueue.o
 .rodata        0x00000000c000ef2d       0x27 /home/yhy/workspace/cccc/bochs/build/obj/tss.o
 .rodata        0x00000000c000ef54      0x105 /home/yhy/workspace/cccc/bochs/build/obj/process.o
 .rodata        0x00000000c000f059       0x27 /home/yhy/workspace/cccc/bochs/build/obj/syscall-init.o
 .rodata        0x00000000c000f080      0x203 /home/yhy/workspace/cccc/bochs/build/obj/ide.o
 *fill*         0x00000000c000f283        0x1 
 .rodata        0x00000000c000f284      0x8d2 /home/yhy/workspace/cccc/bochs/build/obj/fs.o
 *fill*         0x00000000c000fb56        0x2 
 .rodata        0x00000000c000fb58      0x45c /home/yhy/workspace/cccc/bochs/build/obj/file.o
 .rodata        0x00000000c000ffb4       0xdf /home/yhy/workspace/cccc/bochs/build/obj/inode.o
 *fill*         0x00000000c0010093        0x1 
 .rodata        0x00000000c0010094      0x227 /home/yhy/workspace/cccc/bochs/build/obj/dir.o
 *fill*         0x00000000c00102bb        0x1 
 .rodata        0x00000000c00102bc      0x166 /home/yhy/workspace/cccc/bochs/build/obj/fork.o
 *fill*         0x00000000c0010422        0x2 
 .rodata        0x00000000c0010424       0x32 /home/yhy/workspace/cccc/bochs/build/obj/assert.o
 *fill*         0x00000000c0010456        0x2 
 .rodata        0x00000000c0010458      0x183 /home/yhy/workspace/cccc/bochs/build/obj/shell.o
 *fill*         0x00000000c00105db        0x1 
 .rodata        0x00000000c00105dc      0x328 /home/yhy/workspace/cccc/bochs/build/obj/buildin_cmd.o
 .rodata        0x00000000c0010904        0x8 /home/yhy/workspace/cccc/bochs/build/obj/exec.o
 .rodata        0x00000000c001090c       0x6d /home/yhy/workspace/cccc/bochs/build/obj/wait_exit.o

.rodata1
 *(.rodata1)

.eh_frame_hdr
 *(.eh_frame_hdr)
 *(.eh_frame_entry .eh_frame_entry.*)

.eh_frame
 *(.eh_frame)
 *(.eh_frame.*)

.gcc_except_table
 *(.gcc_except_table .gcc_except_table.*)

.gnu_extab
 *(.gnu_extab*)

.exception_ranges
 *(.exception_ranges*)
                0x00000000c0011979                . = DATA_SEGMENT_ALIGN (CONSTANT (MAXPAGESIZE), CONSTANT (COMMONPAGESIZE))

.eh_frame
 *(.eh_frame)
 *(.eh_frame.*)

.gnu_extab
 *(.gnu_extab)

.gcc_except_table
 *(.gcc_except_table .gcc_except_table.*)

.exception_ranges
 *(.exception_ranges*)

.tdata          0x00000000c0011979        0x0
                [!provide]                        PROVIDE (__tdata_start = .)
 *(.tdata .tdata.* .gnu.linkonce.td.*)

.tbss
 *(.tbss .tbss.* .gnu.linkonce.tb.*)
 *(.tcommon)

.preinit_array  0x00000000c0011979        0x0
                [!provide]                        PROVIDE (__preinit_array_start = .)
 *(.preinit_array)
                [!provide]                        PROVIDE (__preinit_array_end = .)

.init_array     0x00000000c0011979        0x0
                [!provide]                        PROVIDE (__init_array_start = .)
 *(SORT_BY_INIT_PRIORITY(.init_array.*) SORT_BY_INIT_PRIORITY(.ctors.*))
 *(.init_array EXCLUDE_FILE(*crtend?.o *crtend.o *crtbegin?.o *crtbegin.o) .ctors)
                [!provide]                        PROVIDE (__init_array_end = .)

.fini_array     0x00000000c0011979        0x0
                [!provide]                        PROVIDE (__fini_array_start = .)
 *(SORT_BY_INIT_PRIORITY(.fini_array.*) SORT_BY_INIT_PRIORITY(.dtors.*))
 *(.fini_array EXCLUDE_FILE(*crtend?.o *crtend.o *crtbegin?.o *crtbegin.o) .dtors)
                [!provide]                        PROVIDE (__fini_array_end = .)

.ctors
 *crtbegin.o(.ctors)
 *crtbegin?.o(.ctors)
 *(EXCLUDE_FILE(*crtend?.o *crtend.o) .ctors)
 *(SORT_BY_NAME(.ctors.*))
 *(.ctors)

.dtors
 *crtbegin.o(.dtors)
 *crtbegin?.o(.dtors)
 *(EXCLUDE_FILE(*crtend?.o *crtend.o) .dtors)
 *(SORT_BY_NAME(.dtors.*))
 *(.dtors)

.jcr
 *(.jcr)

.data.rel.ro
 *(.data.rel.ro.local* .gnu.linkonce.d.rel.ro.local.*)
 *(.data.rel.ro .data.rel.ro.* .gnu.linkonce.d.rel.ro.*)

.dynamic
 *(.dynamic)

.got            0x00000000c001197c        0x0
 *(.got)
 .got           0x00000000c001197c        0x0 /home/yhy/workspace/cccc/bochs/build/obj/main.o
 *(.igot)
                0x00000000c001197c                . = DATA_SEGMENT_RELRO_END (., (SIZEOF (.got.plt) >= 0xc)?0xc:0x0)

.got.plt        0x00000000c001197c        0x0
 *(.got.plt)
 .got.plt       0x00000000c001197c        0x0 /home/yhy/workspace/cccc/bochs/build/obj/main.o
 *(.igot.plt)
 .igot.plt      0x00000000c001197c        0x0 /home/yhy/workspace/cccc/bochs/build/obj/main.o

.data           0x00000000c0011980      0x15c
 *(.data .data.* .gnu.linkonce.d.*)
 .data          0x00000000c0011980        0x0 /home/yhy/workspace/cccc/bochs/build/obj/main.o
 .data          0x00000000c0011980        0x0 /home/yhy/workspace/cccc/bochs/build/obj/init.o
 .data          0x00000000c0011980        0x0 /home/yhy/workspace/cccc/bochs/build/obj/interrupt.o
 .data          0x00000000c0011980        0x0 /home/yhy/workspace/cccc/bochs/build/obj/timer.o
 .data          0x00000000c0011980       0xc0 /home/yhy/workspace/cccc/bochs/build/obj/kernel.o
                0x00000000c0011980                intr_entry_table
 .data          0x00000000c0011a40        0x8 /home/yhy/workspace/cccc/bochs/build/obj/print.o
 .data          0x00000000c0011a48        0x0 /home/yhy/workspace/cccc/bochs/build/obj/debug.o
 .data          0x00000000c0011a48        0x0 /home/yhy/workspace/cccc/bochs/build/obj/memory.o
 .data          0x00000000c0011a48        0x0 /home/yhy/workspace/cccc/bochs/build/obj/bitmap.o
 .data          0x00000000c0011a48        0x0 /home/yhy/workspace/cccc/bochs/build/obj/string.o
 .data          0x00000000c0011a48        0x0 /home/yhy/workspace/cccc/bochs/build/obj/thread.o
 .data          0x00000000c0011a48        0x0 /home/yhy/workspace/cccc/bochs/build/obj/list.o
 .data          0x00000000c0011a48        0x0 /home/yhy/workspace/cccc/bochs/build/obj/sync.o
 .data          0x00000000c0011a48        0x0 /home/yhy/workspace/cccc/bochs/build/obj/console.o
 *fill*         0x00000000c0011a48       0x18 
 .data          0x00000000c0011a60       0x76 /home/yhy/workspace/cccc/bochs/build/obj/keyboard.o
 .data          0x00000000c0011ad6        0x0 /home/yhy/workspace/cccc/bochs/build/obj/ioqueue.o
 .data          0x00000000c0011ad6        0x0 /home/yhy/workspace/cccc/bochs/build/obj/tss.o
 .data          0x00000000c0011ad6        0x0 /home/yhy/workspace/cccc/bochs/build/obj/process.o
 .data          0x00000000c0011ad6        0x0 /home/yhy/workspace/cccc/bochs/build/obj/syscall.o
 .data          0x00000000c0011ad6        0x0 /home/yhy/workspace/cccc/bochs/build/obj/syscall-init.o
 .data          0x00000000c0011ad6        0x0 /home/yhy/workspace/cccc/bochs/build/obj/stdio.o
 .data          0x00000000c0011ad6        0x0 /home/yhy/workspace/cccc/bochs/build/obj/stdio-kernel.o
 .data          0x00000000c0011ad6        0x0 /home/yhy/workspace/cccc/bochs/build/obj/ide.o
 .data          0x00000000c0011ad6        0x0 /home/yhy/workspace/cccc/bochs/build/obj/fs.o
 .data          0x00000000c0011ad6        0x0 /home/yhy/workspace/cccc/bochs/build/obj/file.o
 .data          0x00000000c0011ad6        0x0 /home/yhy/workspace/cccc/bochs/build/obj/inode.o
 .data          0x00000000c0011ad6        0x0 /home/yhy/workspace/cccc/bochs/build/obj/dir.o
 .data          0x00000000c0011ad6        0x0 /home/yhy/workspace/cccc/bochs/build/obj/fork.o
 .data          0x00000000c0011ad6        0x0 /home/yhy/workspace/cccc/bochs/build/obj/assert.o
 *fill*         0x00000000c0011ad6        0x2 
 .data          0x00000000c0011ad8        0x4 /home/yhy/workspace/cccc/bochs/build/obj/shell.o
                0x00000000c0011ad8                argc
 .data          0x00000000c0011adc        0x0 /home/yhy/workspace/cccc/bochs/build/obj/buildin_cmd.o
 .data          0x00000000c0011adc        0x0 /home/yhy/workspace/cccc/bochs/build/obj/exec.o
 .data          0x00000000c0011adc        0x0 /home/yhy/workspace/cccc/bochs/build/obj/wait_exit.o

.data1
 *(.data1)
                0x00000000c0011adc                _edata = .
                [!provide]                        PROVIDE (edata = .)
                0x00000000c0011adc                . = .
                0x00000000c0011adc                __bss_start = .

.bss            0x00000000c0011ae0     0x2180
 *(.dynbss)
 *(.bss .bss.* .gnu.linkonce.b.*)
 .bss           0x00000000c0011ae0        0x0 /home/yhy/workspace/cccc/bochs/build/obj/main.o
 .bss           0x00000000c0011ae0        0x0 /home/yhy/workspace/cccc/bochs/build/obj/init.o
 .bss           0x00000000c0011ae0      0x408 /home/yhy/workspace/cccc/bochs/build/obj/interrupt.o
 .bss           0x00000000c0011ee8        0x0 /home/yhy/workspace/cccc/bochs/build/obj/timer.o
 .bss           0x00000000c0011ee8        0x0 /home/yhy/workspace/cccc/bochs/build/obj/debug.o
 .bss           0x00000000c0011ee8        0x0 /home/yhy/workspace/cccc/bochs/build/obj/memory.o
 .bss           0x00000000c0011ee8        0x0 /home/yhy/workspace/cccc/bochs/build/obj/bitmap.o
 .bss           0x00000000c0011ee8        0x0 /home/yhy/workspace/cccc/bochs/build/obj/string.o
 *fill*         0x00000000c0011ee8       0x18 
 .bss           0x00000000c0011f00       0x84 /home/yhy/workspace/cccc/bochs/build/obj/thread.o
                0x00000000c0011f00                pid_bitmap_bits
 .bss           0x00000000c0011f84        0x0 /home/yhy/workspace/cccc/bochs/build/obj/list.o
 .bss           0x00000000c0011f84        0x0 /home/yhy/workspace/cccc/bochs/build/obj/sync.o
 .bss           0x00000000c0011f84       0x1c /home/yhy/workspace/cccc/bochs/build/obj/console.o
 .bss           0x00000000c0011fa0       0x14 /home/yhy/workspace/cccc/bochs/build/obj/keyboard.o
 .bss           0x00000000c0011fb4        0x0 /home/yhy/workspace/cccc/bochs/build/obj/ioqueue.o
 *fill*         0x00000000c0011fb4        0xc 
 .bss           0x00000000c0011fc0       0x6c /home/yhy/workspace/cccc/bochs/build/obj/tss.o
 .bss           0x00000000c001202c        0x0 /home/yhy/workspace/cccc/bochs/build/obj/process.o
 .bss           0x00000000c001202c        0x0 /home/yhy/workspace/cccc/bochs/build/obj/syscall.o
 .bss           0x00000000c001202c        0x0 /home/yhy/workspace/cccc/bochs/build/obj/syscall-init.o
 .bss           0x00000000c001202c        0x0 /home/yhy/workspace/cccc/bochs/build/obj/stdio.o
 .bss           0x00000000c001202c        0x0 /home/yhy/workspace/cccc/bochs/build/obj/stdio-kernel.o
 .bss           0x00000000c001202c        0x6 /home/yhy/workspace/cccc/bochs/build/obj/ide.o
                0x00000000c001202c                ext_lba_base
                0x00000000c0012030                p_no
                0x00000000c0012031                l_no
 .bss           0x00000000c0012032        0x0 /home/yhy/workspace/cccc/bochs/build/obj/fs.o
 .bss           0x00000000c0012032        0x0 /home/yhy/workspace/cccc/bochs/build/obj/file.o
 .bss           0x00000000c0012032        0x0 /home/yhy/workspace/cccc/bochs/build/obj/inode.o
 .bss           0x00000000c0012032        0x0 /home/yhy/workspace/cccc/bochs/build/obj/dir.o
 .bss           0x00000000c0012032        0x0 /home/yhy/workspace/cccc/bochs/build/obj/fork.o
 .bss           0x00000000c0012032        0x0 /home/yhy/workspace/cccc/bochs/build/obj/assert.o
 *fill*         0x00000000c0012032        0xe 
 .bss           0x00000000c0012040      0x440 /home/yhy/workspace/cccc/bochs/build/obj/shell.o
                0x00000000c0012040                final_path
                0x00000000c0012240                cwd_cache
 .bss           0x00000000c0012480        0x0 /home/yhy/workspace/cccc/bochs/build/obj/buildin_cmd.o
 .bss           0x00000000c0012480        0x0 /home/yhy/workspace/cccc/bochs/build/obj/exec.o
 .bss           0x00000000c0012480        0x0 /home/yhy/workspace/cccc/bochs/build/obj/wait_exit.o
 *(COMMON)
 COMMON         0x00000000c0012480      0x424 /home/yhy/workspace/cccc/bochs/build/obj/interrupt.o
                0x00000000c0012480                intr_name
                0x00000000c00126a0                idt_table
 COMMON         0x00000000c00128a4        0x4 /home/yhy/workspace/cccc/bochs/build/obj/timer.o
                0x00000000c00128a4                ticks
 *fill*         0x00000000c00128a8       0x18 
 COMMON         0x00000000c00128c0      0x12c /home/yhy/workspace/cccc/bochs/build/obj/memory.o
                0x00000000c00128c0                user_pool
                0x00000000c0012900                k_block_descs
                0x00000000c00129a8                kernel_vaddr
                0x00000000c00129c0                kernel_pool
 *fill*         0x00000000c00129ec       0x14 
 COMMON         0x00000000c0012a00       0x6c /home/yhy/workspace/cccc/bochs/build/obj/thread.o
                0x00000000c0012a00                pid_pool
                0x00000000c0012a28                thread_ready_list
                0x00000000c0012a38                thread_all_list
                0x00000000c0012a48                idle_thread
                0x00000000c0012a4c                main_thread
                0x00000000c0012a50                pid_lock
 *fill*         0x00000000c0012a6c       0x14 
 COMMON         0x00000000c0012a80       0x6c /home/yhy/workspace/cccc/bochs/build/obj/keyboard.o
                0x00000000c0012a80                kbd_buf
 *fill*         0x00000000c0012aec       0x14 
 COMMON         0x00000000c0012b00       0x80 /home/yhy/workspace/cccc/bochs/build/obj/syscall-init.o
                0x00000000c0012b00                syscall_table
 COMMON         0x00000000c0012b80      0xcf0 /home/yhy/workspace/cccc/bochs/build/obj/ide.o
                0x00000000c0012b80                channel_cnt
                0x00000000c0012ba0                channels
                0x00000000c0013860                partition_list
 COMMON         0x00000000c0013870        0x4 /home/yhy/workspace/cccc/bochs/build/obj/fs.o
                0x00000000c0013870                cur_part
 *fill*         0x00000000c0013874        0xc 
 COMMON         0x00000000c0013880      0x180 /home/yhy/workspace/cccc/bochs/build/obj/file.o
                0x00000000c0013880                file_table
 COMMON         0x00000000c0013a00      0x208 /home/yhy/workspace/cccc/bochs/build/obj/dir.o
                0x00000000c0013a00                root_dir
 *fill*         0x00000000c0013c08       0x18 
 COMMON         0x00000000c0013c20       0x40 /home/yhy/workspace/cccc/bochs/build/obj/shell.o
                0x00000000c0013c20                argv
                0x00000000c0013c60                . = ALIGN ((. != 0x0)?0x4:0x1)
                0x00000000c0013c60                . = ALIGN (0x4)
                0x00000000c0013c60                . = SEGMENT_START ("ldata-segment", .)
                0x00000000c0013c60                . = ALIGN (0x4)
                0x00000000c0013c60                _end = .
                [!provide]                        PROVIDE (end = .)
                0x00000000c0013c60                . = DATA_SEGMENT_END (.)

.stab
 *(.stab)

.stabstr
 *(.stabstr)

.stab.excl
 *(.stab.excl)

.stab.exclstr
 *(.stab.exclstr)

.stab.index
 *(.stab.index)

.stab.indexstr
 *(.stab.indexstr)

.comment        0x0000000000000000       0x2a
 *(.comment)
 .comment       0x0000000000000000       0x2a /home/yhy/workspace/cccc/bochs/build/obj/main.o
                                         0x2b (size before relaxing)
 .comment       0x000000000000002a       0x2b /home/yhy/workspace/cccc/bochs/build/obj/init.o
 .comment       0x000000000000002a       0x2b /home/yhy/workspace/cccc/bochs/build/obj/interrupt.o
 .comment       0x000000000000002a       0x2b /home/yhy/workspace/cccc/bochs/build/obj/timer.o
 .comment       0x000000000000002a       0x2b /home/yhy/workspace/cccc/bochs/build/obj/debug.o
 .comment       0x000000000000002a       0x2b /home/yhy/workspace/cccc/bochs/build/obj/memory.o
 .comment       0x000000000000002a       0x2b /home/yhy/workspace/cccc/bochs/build/obj/bitmap.o
 .comment       0x000000000000002a       0x2b /home/yhy/workspace/cccc/bochs/build/obj/string.o
 .comment       0x000000000000002a       0x2b /home/yhy/workspace/cccc/bochs/build/obj/thread.o
 .comment       0x000000000000002a       0x2b /home/yhy/workspace/cccc/bochs/build/obj/list.o
 .comment       0x000000000000002a       0x2b /home/yhy/workspace/cccc/bochs/build/obj/sync.o
 .comment       0x000000000000002a       0x2b /home/yhy/workspace/cccc/bochs/build/obj/console.o
 .comment       0x000000000000002a       0x2b /home/yhy/workspace/cccc/bochs/build/obj/keyboard.o
 .comment       0x000000000000002a       0x2b /home/yhy/workspace/cccc/bochs/build/obj/ioqueue.o
 .comment       0x000000000000002a       0x2b /home/yhy/workspace/cccc/bochs/build/obj/tss.o
 .comment       0x000000000000002a       0x2b /home/yhy/workspace/cccc/bochs/build/obj/process.o
 .comment       0x000000000000002a       0x2b /home/yhy/workspace/cccc/bochs/build/obj/syscall.o
 .comment       0x000000000000002a       0x2b /home/yhy/workspace/cccc/bochs/build/obj/syscall-init.o
 .comment       0x000000000000002a       0x2b /home/yhy/workspace/cccc/bochs/build/obj/stdio.o
 .comment       0x000000000000002a       0x2b /home/yhy/workspace/cccc/bochs/build/obj/stdio-kernel.o
 .comment       0x000000000000002a       0x2b /home/yhy/workspace/cccc/bochs/build/obj/ide.o
 .comment       0x000000000000002a       0x2b /home/yhy/workspace/cccc/bochs/build/obj/fs.o
 .comment       0x000000000000002a       0x2b /home/yhy/workspace/cccc/bochs/build/obj/file.o
 .comment       0x000000000000002a       0x2b /home/yhy/workspace/cccc/bochs/build/obj/inode.o
 .comment       0x000000000000002a       0x2b /home/yhy/workspace/cccc/bochs/build/obj/dir.o
 .comment       0x000000000000002a       0x2b /home/yhy/workspace/cccc/bochs/build/obj/fork.o
 .comment       0x000000000000002a       0x2b /home/yhy/workspace/cccc/bochs/build/obj/assert.o
 .comment       0x000000000000002a       0x2b /home/yhy/workspace/cccc/bochs/build/obj/shell.o
 .comment       0x000000000000002a       0x2b /home/yhy/workspace/cccc/bochs/build/obj/buildin_cmd.o
 .comment       0x000000000000002a       0x2b /home/yhy/workspace/cccc/bochs/build/obj/exec.o
 .comment       0x000000000000002a       0x2b /home/yhy/workspace/cccc/bochs/build/obj/wait_exit.o

.gnu.build.attributes
 *(.gnu.build.attributes .gnu.build.attributes.*)

.debug
 *(.debug)

.line
 *(.line)

.debug_srcinfo
 *(.debug_srcinfo)

.debug_sfnames
 *(.debug_sfnames)

.debug_aranges  0x0000000000000000      0x3e0
 *(.debug_aranges)
 .debug_aranges
                0x0000000000000000       0x20 /home/yhy/workspace/cccc/bochs/build/obj/main.o
 .debug_aranges
                0x0000000000000020       0x20 /home/yhy/workspace/cccc/bochs/build/obj/init.o
 .debug_aranges
                0x0000000000000040       0x20 /home/yhy/workspace/cccc/bochs/build/obj/interrupt.o
 .debug_aranges
                0x0000000000000060       0x20 /home/yhy/workspace/cccc/bochs/build/obj/timer.o
 .debug_aranges
                0x0000000000000080       0x20 /home/yhy/workspace/cccc/bochs/build/obj/debug.o
 .debug_aranges
                0x00000000000000a0       0x20 /home/yhy/workspace/cccc/bochs/build/obj/memory.o
 .debug_aranges
                0x00000000000000c0       0x20 /home/yhy/workspace/cccc/bochs/build/obj/bitmap.o
 .debug_aranges
                0x00000000000000e0       0x20 /home/yhy/workspace/cccc/bochs/build/obj/string.o
 .debug_aranges
                0x0000000000000100       0x20 /home/yhy/workspace/cccc/bochs/build/obj/thread.o
 .debug_aranges
                0x0000000000000120       0x20 /home/yhy/workspace/cccc/bochs/build/obj/list.o
 .debug_aranges
                0x0000000000000140       0x20 /home/yhy/workspace/cccc/bochs/build/obj/sync.o
 .debug_aranges
                0x0000000000000160       0x20 /home/yhy/workspace/cccc/bochs/build/obj/console.o
 .debug_aranges
                0x0000000000000180       0x20 /home/yhy/workspace/cccc/bochs/build/obj/keyboard.o
 .debug_aranges
                0x00000000000001a0       0x20 /home/yhy/workspace/cccc/bochs/build/obj/ioqueue.o
 .debug_aranges
                0x00000000000001c0       0x20 /home/yhy/workspace/cccc/bochs/build/obj/tss.o
 .debug_aranges
                0x00000000000001e0       0x20 /home/yhy/workspace/cccc/bochs/build/obj/process.o
 .debug_aranges
                0x0000000000000200       0x20 /home/yhy/workspace/cccc/bochs/build/obj/syscall.o
 .debug_aranges
                0x0000000000000220       0x20 /home/yhy/workspace/cccc/bochs/build/obj/syscall-init.o
 .debug_aranges
                0x0000000000000240       0x20 /home/yhy/workspace/cccc/bochs/build/obj/stdio.o
 .debug_aranges
                0x0000000000000260       0x20 /home/yhy/workspace/cccc/bochs/build/obj/stdio-kernel.o
 .debug_aranges
                0x0000000000000280       0x20 /home/yhy/workspace/cccc/bochs/build/obj/ide.o
 .debug_aranges
                0x00000000000002a0       0x20 /home/yhy/workspace/cccc/bochs/build/obj/fs.o
 .debug_aranges
                0x00000000000002c0       0x20 /home/yhy/workspace/cccc/bochs/build/obj/file.o
 .debug_aranges
                0x00000000000002e0       0x20 /home/yhy/workspace/cccc/bochs/build/obj/inode.o
 .debug_aranges
                0x0000000000000300       0x20 /home/yhy/workspace/cccc/bochs/build/obj/dir.o
 .debug_aranges
                0x0000000000000320       0x20 /home/yhy/workspace/cccc/bochs/build/obj/fork.o
 .debug_aranges
                0x0000000000000340       0x20 /home/yhy/workspace/cccc/bochs/build/obj/assert.o
 .debug_aranges
                0x0000000000000360       0x20 /home/yhy/workspace/cccc/bochs/build/obj/shell.o
 .debug_aranges
                0x0000000000000380       0x20 /home/yhy/workspace/cccc/bochs/build/obj/buildin_cmd.o
 .debug_aranges
                0x00000000000003a0       0x20 /home/yhy/workspace/cccc/bochs/build/obj/exec.o
 .debug_aranges
                0x00000000000003c0       0x20 /home/yhy/workspace/cccc/bochs/build/obj/wait_exit.o

.debug_pubnames
                0x0000000000000000      0xede
 *(.debug_pubnames)
 .debug_pubnames
                0x0000000000000000       0x24 /home/yhy/workspace/cccc/bochs/build/obj/main.o
 .debug_pubnames
                0x0000000000000024       0x1f /home/yhy/workspace/cccc/bochs/build/obj/init.o
 .debug_pubnames
                0x0000000000000043       0x99 /home/yhy/workspace/cccc/bochs/build/obj/interrupt.o
 .debug_pubnames
                0x00000000000000dc       0x3b /home/yhy/workspace/cccc/bochs/build/obj/timer.o
 .debug_pubnames
                0x0000000000000117       0x21 /home/yhy/workspace/cccc/bochs/build/obj/debug.o
 .debug_pubnames
                0x0000000000000138      0x14e /home/yhy/workspace/cccc/bochs/build/obj/memory.o
 .debug_pubnames
                0x0000000000000286       0x56 /home/yhy/workspace/cccc/bochs/build/obj/bitmap.o
 .debug_pubnames
                0x00000000000002dc       0x82 /home/yhy/workspace/cccc/bochs/build/obj/string.o
 .debug_pubnames
                0x000000000000035e      0x169 /home/yhy/workspace/cccc/bochs/build/obj/thread.o
 .debug_pubnames
                0x00000000000004c7       0xaf /home/yhy/workspace/cccc/bochs/build/obj/list.o
 .debug_pubnames
                0x0000000000000576       0x6a /home/yhy/workspace/cccc/bochs/build/obj/sync.o
 .debug_pubnames
                0x00000000000005e0       0x88 /home/yhy/workspace/cccc/bochs/build/obj/console.o
 .debug_pubnames
                0x0000000000000668       0x30 /home/yhy/workspace/cccc/bochs/build/obj/keyboard.o
 .debug_pubnames
                0x0000000000000698       0x5e /home/yhy/workspace/cccc/bochs/build/obj/ioqueue.o
 .debug_pubnames
                0x00000000000006f6       0x32 /home/yhy/workspace/cccc/bochs/build/obj/tss.o
 .debug_pubnames
                0x0000000000000728       0x94 /home/yhy/workspace/cccc/bochs/build/obj/process.o
 .debug_pubnames
                0x00000000000007bc      0x101 /home/yhy/workspace/cccc/bochs/build/obj/syscall.o
 .debug_pubnames
                0x00000000000008bd       0x44 /home/yhy/workspace/cccc/bochs/build/obj/syscall-init.o
 .debug_pubnames
                0x0000000000000901       0x36 /home/yhy/workspace/cccc/bochs/build/obj/stdio.o
 .debug_pubnames
                0x0000000000000937       0x1d /home/yhy/workspace/cccc/bochs/build/obj/stdio-kernel.o
 .debug_pubnames
                0x0000000000000954       0xa1 /home/yhy/workspace/cccc/bochs/build/obj/ide.o
 .debug_pubnames
                0x00000000000009f5      0x13e /home/yhy/workspace/cccc/bochs/build/obj/fs.o
 .debug_pubnames
                0x0000000000000b33       0xd8 /home/yhy/workspace/cccc/bochs/build/obj/file.o
 .debug_pubnames
                0x0000000000000c0b       0x72 /home/yhy/workspace/cccc/bochs/build/obj/inode.o
 .debug_pubnames
                0x0000000000000c7d       0xcb /home/yhy/workspace/cccc/bochs/build/obj/dir.o
 .debug_pubnames
                0x0000000000000d48       0x1f /home/yhy/workspace/cccc/bochs/build/obj/fork.o
 .debug_pubnames
                0x0000000000000d67       0x20 /home/yhy/workspace/cccc/bochs/build/obj/assert.o
 .debug_pubnames
                0x0000000000000d87       0x5f /home/yhy/workspace/cccc/bochs/build/obj/shell.o
 .debug_pubnames
                0x0000000000000de6       0xac /home/yhy/workspace/cccc/bochs/build/obj/buildin_cmd.o
 .debug_pubnames
                0x0000000000000e92       0x20 /home/yhy/workspace/cccc/bochs/build/obj/exec.o
 .debug_pubnames
                0x0000000000000eb2       0x2c /home/yhy/workspace/cccc/bochs/build/obj/wait_exit.o

.debug_info     0x0000000000000000     0xc950
 *(.debug_info .gnu.linkonce.wi.*)
 .debug_info    0x0000000000000000      0x5fc /home/yhy/workspace/cccc/bochs/build/obj/main.o
 .debug_info    0x00000000000005fc       0x79 /home/yhy/workspace/cccc/bochs/build/obj/init.o
 .debug_info    0x0000000000000675      0x3c6 /home/yhy/workspace/cccc/bochs/build/obj/interrupt.o
 .debug_info    0x0000000000000a3b      0x49d /home/yhy/workspace/cccc/bochs/build/obj/timer.o
 .debug_info    0x0000000000000ed8       0xc4 /home/yhy/workspace/cccc/bochs/build/obj/debug.o
 .debug_info    0x0000000000000f9c      0xe19 /home/yhy/workspace/cccc/bochs/build/obj/memory.o
 .debug_info    0x0000000000001db5      0x270 /home/yhy/workspace/cccc/bochs/build/obj/bitmap.o
 .debug_info    0x0000000000002025      0x388 /home/yhy/workspace/cccc/bochs/build/obj/string.o
 .debug_info    0x00000000000023ad      0xb25 /home/yhy/workspace/cccc/bochs/build/obj/thread.o
 .debug_info    0x0000000000002ed2      0x358 /home/yhy/workspace/cccc/bochs/build/obj/list.o
 .debug_info    0x000000000000322a      0x536 /home/yhy/workspace/cccc/bochs/build/obj/sync.o
 .debug_info    0x0000000000003760      0x429 /home/yhy/workspace/cccc/bochs/build/obj/console.o
 .debug_info    0x0000000000003b89      0x55b /home/yhy/workspace/cccc/bochs/build/obj/keyboard.o
 .debug_info    0x00000000000040e4      0x618 /home/yhy/workspace/cccc/bochs/build/obj/ioqueue.o
 .debug_info    0x00000000000046fc      0x5df /home/yhy/workspace/cccc/bochs/build/obj/tss.o
 .debug_info    0x0000000000004cdb      0x61a /home/yhy/workspace/cccc/bochs/build/obj/process.o
 .debug_info    0x00000000000052f5      0x81d /home/yhy/workspace/cccc/bochs/build/obj/syscall.o
 .debug_info    0x0000000000005b12      0x163 /home/yhy/workspace/cccc/bochs/build/obj/syscall-init.o
 .debug_info    0x0000000000005c75      0x23d /home/yhy/workspace/cccc/bochs/build/obj/stdio.o
 .debug_info    0x0000000000005eb2       0xd7 /home/yhy/workspace/cccc/bochs/build/obj/stdio-kernel.o
 .debug_info    0x0000000000005f89      0xd9d /home/yhy/workspace/cccc/bochs/build/obj/ide.o
 .debug_info    0x0000000000006d26     0x1770 /home/yhy/workspace/cccc/bochs/build/obj/fs.o
 .debug_info    0x0000000000008496      0xd71 /home/yhy/workspace/cccc/bochs/build/obj/file.o
 .debug_info    0x0000000000009207      0xaac /home/yhy/workspace/cccc/bochs/build/obj/inode.o
 .debug_info    0x0000000000009cb3      0xd28 /home/yhy/workspace/cccc/bochs/build/obj/dir.o
 .debug_info    0x000000000000a9db      0x7d1 /home/yhy/workspace/cccc/bochs/build/obj/fork.o
 .debug_info    0x000000000000b1ac       0xc4 /home/yhy/workspace/cccc/bochs/build/obj/assert.o
 .debug_info    0x000000000000b270      0x30f /home/yhy/workspace/cccc/bochs/build/obj/shell.o
 .debug_info    0x000000000000b57f      0x5b3 /home/yhy/workspace/cccc/bochs/build/obj/buildin_cmd.o
 .debug_info    0x000000000000bb32      0x84b /home/yhy/workspace/cccc/bochs/build/obj/exec.o
 .debug_info    0x000000000000c37d      0x5d3 /home/yhy/workspace/cccc/bochs/build/obj/wait_exit.o

.debug_abbrev   0x0000000000000000     0x25a7
 *(.debug_abbrev)
 .debug_abbrev  0x0000000000000000      0x135 /home/yhy/workspace/cccc/bochs/build/obj/main.o
 .debug_abbrev  0x0000000000000135       0x46 /home/yhy/workspace/cccc/bochs/build/obj/init.o
 .debug_abbrev  0x000000000000017b      0x146 /home/yhy/workspace/cccc/bochs/build/obj/interrupt.o
 .debug_abbrev  0x00000000000002c1      0x140 /home/yhy/workspace/cccc/bochs/build/obj/timer.o
 .debug_abbrev  0x0000000000000401       0x5e /home/yhy/workspace/cccc/bochs/build/obj/debug.o
 .debug_abbrev  0x000000000000045f      0x206 /home/yhy/workspace/cccc/bochs/build/obj/memory.o
 .debug_abbrev  0x0000000000000665       0xe8 /home/yhy/workspace/cccc/bochs/build/obj/bitmap.o
 .debug_abbrev  0x000000000000074d       0xd4 /home/yhy/workspace/cccc/bochs/build/obj/string.o
 .debug_abbrev  0x0000000000000821      0x23f /home/yhy/workspace/cccc/bochs/build/obj/thread.o
 .debug_abbrev  0x0000000000000a60       0xfa /home/yhy/workspace/cccc/bochs/build/obj/list.o
 .debug_abbrev  0x0000000000000b5a       0xff /home/yhy/workspace/cccc/bochs/build/obj/sync.o
 .debug_abbrev  0x0000000000000c59      0x106 /home/yhy/workspace/cccc/bochs/build/obj/console.o
 .debug_abbrev  0x0000000000000d5f      0x12d /home/yhy/workspace/cccc/bochs/build/obj/keyboard.o
 .debug_abbrev  0x0000000000000e8c      0x14a /home/yhy/workspace/cccc/bochs/build/obj/ioqueue.o
 .debug_abbrev  0x0000000000000fd6      0x120 /home/yhy/workspace/cccc/bochs/build/obj/tss.o
 .debug_abbrev  0x00000000000010f6      0x13d /home/yhy/workspace/cccc/bochs/build/obj/process.o
 .debug_abbrev  0x0000000000001233      0x11f /home/yhy/workspace/cccc/bochs/build/obj/syscall.o
 .debug_abbrev  0x0000000000001352       0xac /home/yhy/workspace/cccc/bochs/build/obj/syscall-init.o
 .debug_abbrev  0x00000000000013fe       0xcd /home/yhy/workspace/cccc/bochs/build/obj/stdio.o
 .debug_abbrev  0x00000000000014cb       0xa9 /home/yhy/workspace/cccc/bochs/build/obj/stdio-kernel.o
 .debug_abbrev  0x0000000000001574      0x20e /home/yhy/workspace/cccc/bochs/build/obj/ide.o
 .debug_abbrev  0x0000000000001782      0x231 /home/yhy/workspace/cccc/bochs/build/obj/fs.o
 .debug_abbrev  0x00000000000019b3      0x1cf /home/yhy/workspace/cccc/bochs/build/obj/file.o
 .debug_abbrev  0x0000000000001b82      0x15d /home/yhy/workspace/cccc/bochs/build/obj/inode.o
 .debug_abbrev  0x0000000000001cdf      0x1c4 /home/yhy/workspace/cccc/bochs/build/obj/dir.o
 .debug_abbrev  0x0000000000001ea3      0x143 /home/yhy/workspace/cccc/bochs/build/obj/fork.o
 .debug_abbrev  0x0000000000001fe6       0x5e /home/yhy/workspace/cccc/bochs/build/obj/assert.o
 .debug_abbrev  0x0000000000002044      0x15a /home/yhy/workspace/cccc/bochs/build/obj/shell.o
 .debug_abbrev  0x000000000000219e      0x147 /home/yhy/workspace/cccc/bochs/build/obj/buildin_cmd.o
 .debug_abbrev  0x00000000000022e5      0x14f /home/yhy/workspace/cccc/bochs/build/obj/exec.o
 .debug_abbrev  0x0000000000002434      0x173 /home/yhy/workspace/cccc/bochs/build/obj/wait_exit.o

.debug_line     0x0000000000000000     0x3573
 *(.debug_line .debug_line.* .debug_line_end)
 .debug_line    0x0000000000000000      0x1a1 /home/yhy/workspace/cccc/bochs/build/obj/main.o
 .debug_line    0x00000000000001a1       0x6d /home/yhy/workspace/cccc/bochs/build/obj/init.o
 .debug_line    0x000000000000020e      0x168 /home/yhy/workspace/cccc/bochs/build/obj/interrupt.o
 .debug_line    0x0000000000000376      0x17e /home/yhy/workspace/cccc/bochs/build/obj/timer.o
 .debug_line    0x00000000000004f4       0x70 /home/yhy/workspace/cccc/bochs/build/obj/debug.o
 .debug_line    0x0000000000000564      0x2fd /home/yhy/workspace/cccc/bochs/build/obj/memory.o
 .debug_line    0x0000000000000861       0xe5 /home/yhy/workspace/cccc/bochs/build/obj/bitmap.o
 .debug_line    0x0000000000000946       0xc1 /home/yhy/workspace/cccc/bochs/build/obj/string.o
 .debug_line    0x0000000000000a07      0x29b /home/yhy/workspace/cccc/bochs/build/obj/thread.o
 .debug_line    0x0000000000000ca2      0x119 /home/yhy/workspace/cccc/bochs/build/obj/list.o
 .debug_line    0x0000000000000dbb      0x17c /home/yhy/workspace/cccc/bochs/build/obj/sync.o
 .debug_line    0x0000000000000f37      0x167 /home/yhy/workspace/cccc/bochs/build/obj/console.o
 .debug_line    0x000000000000109e      0x1ea /home/yhy/workspace/cccc/bochs/build/obj/keyboard.o
 .debug_line    0x0000000000001288      0x1b1 /home/yhy/workspace/cccc/bochs/build/obj/ioqueue.o
 .debug_line    0x0000000000001439      0x173 /home/yhy/workspace/cccc/bochs/build/obj/tss.o
 .debug_line    0x00000000000015ac      0x1a5 /home/yhy/workspace/cccc/bochs/build/obj/process.o
 .debug_line    0x0000000000001751      0x15d /home/yhy/workspace/cccc/bochs/build/obj/syscall.o
 .debug_line    0x00000000000018ae       0xf3 /home/yhy/workspace/cccc/bochs/build/obj/syscall-init.o
 .debug_line    0x00000000000019a1       0xbf /home/yhy/workspace/cccc/bochs/build/obj/stdio.o
 .debug_line    0x0000000000001a60       0xa0 /home/yhy/workspace/cccc/bochs/build/obj/stdio-kernel.o
 .debug_line    0x0000000000001b00      0x2b6 /home/yhy/workspace/cccc/bochs/build/obj/ide.o
 .debug_line    0x0000000000001db6      0x4fc /home/yhy/workspace/cccc/bochs/build/obj/fs.o
 .debug_line    0x00000000000022b2      0x384 /home/yhy/workspace/cccc/bochs/build/obj/file.o
 .debug_line    0x0000000000002636      0x27b /home/yhy/workspace/cccc/bochs/build/obj/inode.o
 .debug_line    0x00000000000028b1      0x34b /home/yhy/workspace/cccc/bochs/build/obj/dir.o
 .debug_line    0x0000000000002bfc      0x218 /home/yhy/workspace/cccc/bochs/build/obj/fork.o
 .debug_line    0x0000000000002e14       0x66 /home/yhy/workspace/cccc/bochs/build/obj/assert.o
 .debug_line    0x0000000000002e7a      0x15c /home/yhy/workspace/cccc/bochs/build/obj/shell.o
 .debug_line    0x0000000000002fd6      0x20a /home/yhy/workspace/cccc/bochs/build/obj/buildin_cmd.o
 .debug_line    0x00000000000031e0      0x1e1 /home/yhy/workspace/cccc/bochs/build/obj/exec.o
 .debug_line    0x00000000000033c1      0x1b2 /home/yhy/workspace/cccc/bochs/build/obj/wait_exit.o

.debug_frame    0x0000000000000000     0x1b2c
 *(.debug_frame)
 .debug_frame   0x0000000000000000       0x44 /home/yhy/workspace/cccc/bochs/build/obj/main.o
 .debug_frame   0x0000000000000044       0x2c /home/yhy/workspace/cccc/bochs/build/obj/init.o
 .debug_frame   0x0000000000000070      0x13c /home/yhy/workspace/cccc/bochs/build/obj/interrupt.o
 .debug_frame   0x00000000000001ac       0xac /home/yhy/workspace/cccc/bochs/build/obj/timer.o
 .debug_frame   0x0000000000000258       0x2c /home/yhy/workspace/cccc/bochs/build/obj/debug.o
 .debug_frame   0x0000000000000284      0x23c /home/yhy/workspace/cccc/bochs/build/obj/memory.o
 .debug_frame   0x00000000000004c0       0x88 /home/yhy/workspace/cccc/bochs/build/obj/bitmap.o
 .debug_frame   0x0000000000000548      0x104 /home/yhy/workspace/cccc/bochs/build/obj/string.o
 .debug_frame   0x000000000000064c      0x224 /home/yhy/workspace/cccc/bochs/build/obj/thread.o
 .debug_frame   0x0000000000000870      0x104 /home/yhy/workspace/cccc/bochs/build/obj/list.o
 .debug_frame   0x0000000000000974       0xac /home/yhy/workspace/cccc/bochs/build/obj/sync.o
 .debug_frame   0x0000000000000a20       0xa4 /home/yhy/workspace/cccc/bochs/build/obj/console.o
 .debug_frame   0x0000000000000ac4       0x5c /home/yhy/workspace/cccc/bochs/build/obj/keyboard.o
 .debug_frame   0x0000000000000b20       0xd4 /home/yhy/workspace/cccc/bochs/build/obj/ioqueue.o
 .debug_frame   0x0000000000000bf4       0x60 /home/yhy/workspace/cccc/bochs/build/obj/tss.o
 .debug_frame   0x0000000000000c54       0xa4 /home/yhy/workspace/cccc/bochs/build/obj/process.o
 .debug_frame   0x0000000000000cf8      0x288 /home/yhy/workspace/cccc/bochs/build/obj/syscall.o
 .debug_frame   0x0000000000000f80       0x44 /home/yhy/workspace/cccc/bochs/build/obj/syscall-init.o
 .debug_frame   0x0000000000000fc4       0x80 /home/yhy/workspace/cccc/bochs/build/obj/stdio.o
 .debug_frame   0x0000000000001044       0x34 /home/yhy/workspace/cccc/bochs/build/obj/stdio-kernel.o
 .debug_frame   0x0000000000001078      0x1d4 /home/yhy/workspace/cccc/bochs/build/obj/ide.o
 .debug_frame   0x000000000000124c      0x298 /home/yhy/workspace/cccc/bochs/build/obj/fs.o
 .debug_frame   0x00000000000014e4      0x10c /home/yhy/workspace/cccc/bochs/build/obj/file.o
 .debug_frame   0x00000000000015f0       0xc4 /home/yhy/workspace/cccc/bochs/build/obj/inode.o
 .debug_frame   0x00000000000016b4      0x11c /home/yhy/workspace/cccc/bochs/build/obj/dir.o
 .debug_frame   0x00000000000017d0       0xa8 /home/yhy/workspace/cccc/bochs/build/obj/fork.o
 .debug_frame   0x0000000000001878       0x2c /home/yhy/workspace/cccc/bochs/build/obj/assert.o
 .debug_frame   0x00000000000018a4       0x74 /home/yhy/workspace/cccc/bochs/build/obj/shell.o
 .debug_frame   0x0000000000001918      0x114 /home/yhy/workspace/cccc/bochs/build/obj/buildin_cmd.o
 .debug_frame   0x0000000000001a2c       0x5c /home/yhy/workspace/cccc/bochs/build/obj/exec.o
 .debug_frame   0x0000000000001a88       0xa4 /home/yhy/workspace/cccc/bochs/build/obj/wait_exit.o

.debug_str      0x0000000000000000     0x27de
 *(.debug_str)
 .debug_str     0x0000000000000000      0x351 /home/yhy/workspace/cccc/bochs/build/obj/main.o
                                        0x3e4 (size before relaxing)
 .debug_str     0x0000000000000351       0x3a /home/yhy/workspace/cccc/bochs/build/obj/init.o
                                         0xb4 (size before relaxing)
 .debug_str     0x000000000000038b      0x1e1 /home/yhy/workspace/cccc/bochs/build/obj/interrupt.o
                                        0x28e (size before relaxing)
 .debug_str     0x000000000000056c       0xd8 /home/yhy/workspace/cccc/bochs/build/obj/timer.o
                                        0x344 (size before relaxing)
 .debug_str     0x0000000000000644       0x50 /home/yhy/workspace/cccc/bochs/build/obj/debug.o
                                         0xd4 (size before relaxing)
 .debug_str     0x0000000000000694      0x2c1 /home/yhy/workspace/cccc/bochs/build/obj/memory.o
                                        0x5ef (size before relaxing)
 .debug_str     0x0000000000000955       0x9f /home/yhy/workspace/cccc/bochs/build/obj/bitmap.o
                                        0x17c (size before relaxing)
 .debug_str     0x00000000000009f4       0x93 /home/yhy/workspace/cccc/bochs/build/obj/string.o
                                        0x130 (size before relaxing)
 .debug_str     0x0000000000000a87      0x24e /home/yhy/workspace/cccc/bochs/build/obj/thread.o
                                        0x574 (size before relaxing)
 .debug_str     0x0000000000000cd5       0xb9 /home/yhy/workspace/cccc/bochs/build/obj/list.o
                                        0x1a9 (size before relaxing)
 .debug_str     0x0000000000000d8e       0x8c /home/yhy/workspace/cccc/bochs/build/obj/sync.o
                                        0x33d (size before relaxing)
 .debug_str     0x0000000000000e1a       0xa9 /home/yhy/workspace/cccc/bochs/build/obj/console.o
                                        0x329 (size before relaxing)
 .debug_str     0x0000000000000ec3      0x116 /home/yhy/workspace/cccc/bochs/build/obj/keyboard.o
                                        0x3b8 (size before relaxing)
 .debug_str     0x0000000000000fd9       0x8c /home/yhy/workspace/cccc/bochs/build/obj/ioqueue.o
                                        0x351 (size before relaxing)
 .debug_str     0x0000000000001065      0x10d /home/yhy/workspace/cccc/bochs/build/obj/tss.o
                                        0x397 (size before relaxing)
 .debug_str     0x0000000000001172      0x131 /home/yhy/workspace/cccc/bochs/build/obj/process.o
                                        0x40c (size before relaxing)
 .debug_str     0x00000000000012a3      0x184 /home/yhy/workspace/cccc/bochs/build/obj/syscall.o
                                        0x2fb (size before relaxing)
 .debug_str     0x0000000000001427       0x69 /home/yhy/workspace/cccc/bochs/build/obj/syscall-init.o
                                        0x1e6 (size before relaxing)
 .debug_str     0x0000000000001490       0x84 /home/yhy/workspace/cccc/bochs/build/obj/stdio.o
                                        0x13f (size before relaxing)
 .debug_str     0x0000000000001514       0x40 /home/yhy/workspace/cccc/bochs/build/obj/stdio-kernel.o
                                         0xce (size before relaxing)
 .debug_str     0x0000000000001554      0x23b /home/yhy/workspace/cccc/bochs/build/obj/ide.o
                                        0x5d5 (size before relaxing)
 .debug_str     0x000000000000178f      0x57d /home/yhy/workspace/cccc/bochs/build/obj/fs.o
                                        0xa87 (size before relaxing)
 .debug_str     0x0000000000001d0c      0x1e5 /home/yhy/workspace/cccc/bochs/build/obj/file.o
                                        0x7df (size before relaxing)
 .debug_str     0x0000000000001ef1      0x113 /home/yhy/workspace/cccc/bochs/build/obj/inode.o
                                        0x623 (size before relaxing)
 .debug_str     0x0000000000002004      0x13c /home/yhy/workspace/cccc/bochs/build/obj/dir.o
                                        0x6b6 (size before relaxing)
 .debug_str     0x0000000000002140      0x154 /home/yhy/workspace/cccc/bochs/build/obj/fork.o
                                        0x4d9 (size before relaxing)
 .debug_str     0x0000000000002294       0x3f /home/yhy/workspace/cccc/bochs/build/obj/assert.o
                                         0xd6 (size before relaxing)
 .debug_str     0x00000000000022d3       0x9d /home/yhy/workspace/cccc/bochs/build/obj/shell.o
                                        0x1b3 (size before relaxing)
 .debug_str     0x0000000000002370      0x11f /home/yhy/workspace/cccc/bochs/build/obj/buildin_cmd.o
                                        0x2d6 (size before relaxing)
 .debug_str     0x000000000000248f      0x21f /home/yhy/workspace/cccc/bochs/build/obj/exec.o
                                        0x55f (size before relaxing)
 .debug_str     0x00000000000026ae      0x130 /home/yhy/workspace/cccc/bochs/build/obj/wait_exit.o
                                        0x404 (size before relaxing)

.debug_loc      0x0000000000000000     0x2b7c
 *(.debug_loc)
 .debug_loc     0x0000000000000000       0x58 /home/yhy/workspace/cccc/bochs/build/obj/main.o
 .debug_loc     0x0000000000000058       0x2c /home/yhy/workspace/cccc/bochs/build/obj/init.o
 .debug_loc     0x0000000000000084      0x210 /home/yhy/workspace/cccc/bochs/build/obj/interrupt.o
 .debug_loc     0x0000000000000294      0x108 /home/yhy/workspace/cccc/bochs/build/obj/timer.o
 .debug_loc     0x000000000000039c       0x2c /home/yhy/workspace/cccc/bochs/build/obj/debug.o
 .debug_loc     0x00000000000003c8      0x3f4 /home/yhy/workspace/cccc/bochs/build/obj/memory.o
 .debug_loc     0x00000000000007bc       0xb0 /home/yhy/workspace/cccc/bochs/build/obj/bitmap.o
 .debug_loc     0x000000000000086c      0x1b8 /home/yhy/workspace/cccc/bochs/build/obj/string.o
 .debug_loc     0x0000000000000a24      0x3c8 /home/yhy/workspace/cccc/bochs/build/obj/thread.o
 .debug_loc     0x0000000000000dec      0x1b8 /home/yhy/workspace/cccc/bochs/build/obj/list.o
 .debug_loc     0x0000000000000fa4      0x108 /home/yhy/workspace/cccc/bochs/build/obj/sync.o
 .debug_loc     0x00000000000010ac      0x108 /home/yhy/workspace/cccc/bochs/build/obj/console.o
 .debug_loc     0x00000000000011b4       0x84 /home/yhy/workspace/cccc/bochs/build/obj/keyboard.o
 .debug_loc     0x0000000000001238      0x160 /home/yhy/workspace/cccc/bochs/build/obj/ioqueue.o
 .debug_loc     0x0000000000001398       0x84 /home/yhy/workspace/cccc/bochs/build/obj/tss.o
 .debug_loc     0x000000000000141c      0x108 /home/yhy/workspace/cccc/bochs/build/obj/process.o
 .debug_loc     0x0000000000001524      0x3f4 /home/yhy/workspace/cccc/bochs/build/obj/syscall.o
 .debug_loc     0x0000000000001918       0x58 /home/yhy/workspace/cccc/bochs/build/obj/syscall-init.o
 .debug_loc     0x0000000000001970       0xb0 /home/yhy/workspace/cccc/bochs/build/obj/stdio.o
 .debug_loc     0x0000000000001a20       0x2c /home/yhy/workspace/cccc/bochs/build/obj/stdio-kernel.o
 .debug_loc     0x0000000000001a4c      0x318 /home/yhy/workspace/cccc/bochs/build/obj/ide.o
 .debug_loc     0x0000000000001d64      0x44c /home/yhy/workspace/cccc/bochs/build/obj/fs.o
 .debug_loc     0x00000000000021b0      0x1b8 /home/yhy/workspace/cccc/bochs/build/obj/file.o
 .debug_loc     0x0000000000002368      0x134 /home/yhy/workspace/cccc/bochs/build/obj/inode.o
 .debug_loc     0x000000000000249c      0x1b8 /home/yhy/workspace/cccc/bochs/build/obj/dir.o
 .debug_loc     0x0000000000002654      0x108 /home/yhy/workspace/cccc/bochs/build/obj/fork.o
 .debug_loc     0x000000000000275c       0x2c /home/yhy/workspace/cccc/bochs/build/obj/assert.o
 .debug_loc     0x0000000000002788       0xb0 /home/yhy/workspace/cccc/bochs/build/obj/shell.o
 .debug_loc     0x0000000000002838      0x1b8 /home/yhy/workspace/cccc/bochs/build/obj/buildin_cmd.o
 .debug_loc     0x00000000000029f0       0x84 /home/yhy/workspace/cccc/bochs/build/obj/exec.o
 .debug_loc     0x0000000000002a74      0x108 /home/yhy/workspace/cccc/bochs/build/obj/wait_exit.o

.debug_macinfo
 *(.debug_macinfo)

.debug_weaknames
 *(.debug_weaknames)

.debug_funcnames
 *(.debug_funcnames)

.debug_typenames
 *(.debug_typenames)

.debug_varnames
 *(.debug_varnames)

.debug_pubtypes
 *(.debug_pubtypes)

.debug_ranges   0x0000000000000000       0x68
 *(.debug_ranges)
 .debug_ranges  0x0000000000000000       0x30 /home/yhy/workspace/cccc/bochs/build/obj/keyboard.o
 .debug_ranges  0x0000000000000030       0x38 /home/yhy/workspace/cccc/bochs/build/obj/dir.o

.debug_macro
 *(.debug_macro)

.debug_addr
 *(.debug_addr)

.gnu.attributes
 *(.gnu.attributes)

/DISCARD/
 *(.note.GNU-stack)
 *(.gnu_debuglink)
 *(.gnu.lto_*)
OUTPUT(/home/yhy/workspace/cccc/bochs/build/obj/kernel.bin elf32-i386)
